target datalayout = "e-m:e-p270:32:32-p271:32:32-p272:64:64-i64:64-i128:128-f80:128-n8:16:32:64-S128"
target triple = "x86_64-pc-linux-gnu"

%struct.psa_global_data_t = type { i8, i8, %struct.mbedtls_psa_random_context_t }
%struct.mbedtls_psa_random_context_t = type { ptr, ptr, %struct.mbedtls_entropy_context, %struct.mbedtls_ctr_drbg_context }
%struct.mbedtls_entropy_context = type { %struct.mbedtls_md_context_t, i32, i32, [20 x %struct.mbedtls_entropy_source_state] }
%struct.mbedtls_md_context_t = type { ptr, ptr, ptr }
%struct.mbedtls_entropy_source_state = type { ptr, ptr, i64, i64, i32 }
%struct.mbedtls_ctr_drbg_context = type { [16 x i8], i32, i32, i64, i32, %struct.mbedtls_aes_context, ptr, ptr }
%struct.mbedtls_aes_context = type { i32, i64, [68 x i32] }

@global_data = internal global %struct.psa_global_data_t zeroinitializer, align 8

; Function Attrs: nounwind uwtable
define hidden i32 @mbedtls_psa_crypto_configure_entropy_sources(ptr noundef %0, ptr noundef %1) #0 {
  %3 = alloca ptr, align 8
  %4 = alloca ptr, align 8
  %5 = alloca i32, align 4
  store ptr %0, ptr %3, align 8, !tbaa !21
  store ptr %1, ptr %4, align 8, !tbaa !21
  call void @llvm.lifetime.start.p0(i64 4, ptr %5) #8
  store i32 -151, ptr %5, align 4, !tbaa !3
  %6 = load i8, ptr getelementptr inbounds nuw (%struct.psa_global_data_t, ptr @global_data, i32 0, i32 1), align 1, !tbaa !128
  %7 = zext i8 %6 to i32
  %8 = icmp ne i32 %7, 0
  br i1 %8, label %9, label %10

9:                                                ; preds = %2
  store i32 -137, ptr %5, align 4, !tbaa !3
  br label %13

10:                                               ; preds = %2
  %11 = load ptr, ptr %3, align 8, !tbaa !21
  store ptr %11, ptr getelementptr inbounds nuw (%struct.psa_global_data_t, ptr @global_data, i32 0, i32 2), align 8, !tbaa !129
  %12 = load ptr, ptr %4, align 8, !tbaa !21
  store ptr %12, ptr getelementptr inbounds nuw (%struct.mbedtls_psa_random_context_t, ptr getelementptr inbounds nuw (%struct.psa_global_data_t, ptr @global_data, i32 0, i32 2), i32 0, i32 1), align 8, !tbaa !130
  store i32 0, ptr %5, align 4, !tbaa !3
  br label %13

13:                                               ; preds = %10, %9
  %14 = load i32, ptr %5, align 4, !tbaa !3
  call void @llvm.lifetime.end.p0(i64 4, ptr %5) #8
  ret i32 %14
}