; Function Attrs: mustprogress nofree norecurse nosync nounwind willreturn memory(readwrite, argmem: none, inaccessiblemem: none) uwtable
define hidden range(i32 -137, 1) i32 @mbedtls_psa_crypto_configure_entropy_sources(ptr noundef %0, ptr noundef %1) local_unnamed_addr #17 {
  %3 = load i8, ptr getelementptr inbounds nuw (i8, ptr @global_data, i64 1), align 1, !tbaa !67
  %.not = icmp eq i8 %3, 0
  br i1 %.not, label %4, label %5

4:                                                ; preds = %2
  store ptr %0, ptr getelementptr inbounds nuw (i8, ptr @global_data, i64 8), align 8, !tbaa !106
  store ptr %1, ptr getelementptr inbounds nuw (i8, ptr @global_data, i64 16), align 8, !tbaa !107
  br label %5

5:                                                ; preds = %2, %4
  %.0 = phi i32 [ 0, %4 ], [ -137, %2 ]
  ret i32 %.0
}